target datalayout = "e-m:e-p270:32:32-p271:32:32-p272:64:64-i64:64-i128:128-f80:128-n8:16:32:64-S128"
target triple = "x86_64-pc-linux-gnu"

%struct.AVFormatContext = type { ptr, ptr, ptr, ptr, ptr, i32, i32, ptr, i32, ptr, i32, ptr, ptr, i64, i64, i64, i32, i32, i32, i64, i64, ptr, i32, i32, ptr, i32, i32, i32, i32, ptr, i64, i32, i32, %struct.AVIOInterruptCB, i32, i32, i32, i32, i64, i32, i32, i32, i32, i32, i32, i32, i32, i32, i32, i32, i32, i64, i32, i32, i32, i32, i32, ptr, ptr, ptr, ptr, i32, ptr, ptr, ptr, ptr, i32, ptr, ptr, i64, ptr, ptr, ptr, i64 }
%struct.AVIOInterruptCB = type { ptr, ptr }
%struct.AAXContext = type { i64, i16, i64, i64, i64, i64, i16, i16, i32, i64, i64, ptr, i32, ptr, ptr }

; Function Attrs: nounwind uwtable
define internal i32 @aax_read_close(ptr noundef %0) #0 {
  %2 = alloca ptr, align 8
  %3 = alloca ptr, align 8
  store ptr %0, ptr %2, align 8, !tbaa !14
  call void @llvm.lifetime.start.p0(i64 8, ptr %3) #8
  %4 = load ptr, ptr %2, align 8, !tbaa !14
  %5 = getelementptr inbounds nuw %struct.AVFormatContext, ptr %4, i32 0, i32 3
  %6 = load ptr, ptr %5, align 8, !tbaa !16
  store ptr %6, ptr %3, align 8, !tbaa !31
  %7 = load ptr, ptr %3, align 8, !tbaa !31
  %8 = getelementptr inbounds nuw %struct.AAXContext, ptr %7, i32 0, i32 14
  call void @av_freep(ptr noundef %8)
  %9 = load ptr, ptr %3, align 8, !tbaa !31
  %10 = getelementptr inbounds nuw %struct.AAXContext, ptr %9, i32 0, i32 13
  call void @av_freep(ptr noundef %10)
  %11 = load ptr, ptr %3, align 8, !tbaa !31
  %12 = getelementptr inbounds nuw %struct.AAXContext, ptr %11, i32 0, i32 11
  call void @av_freep(ptr noundef %12)
  call void @llvm.lifetime.end.p0(i64 8, ptr %3) #8
  ret i32 0
}